; Function Attrs: mustprogress norecurse uwtable
define internal fastcc noundef i32 @_ZL11HexToBIGNUMPSt10unique_ptrI9bignum_st14OpenSSLDeleterIS0_XadL_Z7BN_freeEEEEPKc(ptr noundef nonnull captures(none) %0, ptr noundef %1) unnamed_addr #0 personality ptr @__gxx_personality_v0 {
  %3 = alloca ptr, align 8
  call void @llvm.lifetime.start.p0(i64 8, ptr nonnull %3) #19
  store ptr null, ptr %3, align 8, !tbaa !19
  %4 = call i32 @BN_hex2bn(ptr noundef nonnull %3, ptr noundef %1)
  %5 = load ptr, ptr %3, align 8, !tbaa !19
  %6 = load ptr, ptr %0, align 8, !tbaa !19
  store ptr %5, ptr %0, align 8, !tbaa !19
  %.not.i.i = icmp eq ptr %6, null
  br i1 %.not.i.i, label %_ZNSt10unique_ptrI9bignum_st14OpenSSLDeleterIS0_XadL_Z7BN_freeEEEE5resetEPS0_.exit, label %7

7:                                                ; preds = %2
  invoke void @BN_free(ptr noundef nonnull %6)
          to label %_ZNSt10unique_ptrI9bignum_st14OpenSSLDeleterIS0_XadL_Z7BN_freeEEEE5resetEPS0_.exit unwind label %8

8:                                                ; preds = %7
  %9 = landingpad { ptr, i32 }
          catch ptr null
  %10 = extractvalue { ptr, i32 } %9, 0
  call void @__clang_call_terminate(ptr %10) #21
  unreachable

_ZNSt10unique_ptrI9bignum_st14OpenSSLDeleterIS0_XadL_Z7BN_freeEEEE5resetEPS0_.exit: ; preds = %2, %7
  call void @llvm.lifetime.end.p0(i64 8, ptr nonnull %3) #19
  ret i32 %4
}